; Function Attrs: mustprogress uwtable
define hidden void @_ZN10duckdb_re23DFA8RWLocker14LockForWritingEv(ptr noundef nonnull align 8 captures(none) dereferenceable(9) %0) local_unnamed_addr #1 align 2 personality ptr @__gxx_personality_v0 {
  %2 = getelementptr inbounds nuw i8, ptr %0, i64 8
  %3 = load i8, ptr %2, align 8, !tbaa !156, !range !117, !noundef !118
  %4 = trunc nuw i8 %3 to i1
  br i1 %4, label %20, label %5

5:                                                ; preds = %1
  %6 = load ptr, ptr %0, align 8, !tbaa !154
  %7 = tail call i32 @pthread_rwlock_unlock(ptr noundef nonnull align 8 dereferenceable(56) %6) #20
  %.not.i = icmp eq i32 %7, 0
  br i1 %.not.i, label %_ZN10duckdb_re25Mutex12ReaderUnlockEv.exit, label %8

8:                                                ; preds = %5
  %9 = tail call ptr @__cxa_allocate_exception(i64 16) #20
  invoke void @_ZNSt13runtime_errorC1EPKc(ptr noundef nonnull align 8 dereferenceable(16) %9, ptr noundef nonnull @.str.18)
          to label %10 unwind label %11

10:                                               ; preds = %8
  tail call void @__cxa_throw(ptr nonnull %9, ptr nonnull @_ZTISt13runtime_error, ptr nonnull @_ZNSt13runtime_errorD1Ev) #21
  unreachable

common.resume:                                    ; preds = %18, %11
  %.sink = phi ptr [ %16, %18 ], [ %9, %11 ]
  %common.resume.op = phi { ptr, i32 } [ %19, %18 ], [ %12, %11 ]
  tail call void @__cxa_free_exception(ptr nonnull %.sink) #20
  resume { ptr, i32 } %common.resume.op

11:                                               ; preds = %8
  %12 = landingpad { ptr, i32 }
          cleanup
  br label %common.resume

_ZN10duckdb_re25Mutex12ReaderUnlockEv.exit:       ; preds = %5
  %13 = load ptr, ptr %0, align 8, !tbaa !154
  %14 = tail call i32 @pthread_rwlock_wrlock(ptr noundef nonnull align 8 dereferenceable(56) %13) #20
  %.not.i.i = icmp eq i32 %14, 0
  br i1 %.not.i.i, label %_ZN10duckdb_re25Mutex10WriterLockEv.exit, label %15

15:                                               ; preds = %_ZN10duckdb_re25Mutex12ReaderUnlockEv.exit
  %16 = tail call ptr @__cxa_allocate_exception(i64 16) #20
  invoke void @_ZNSt13runtime_errorC1EPKc(ptr noundef nonnull align 8 dereferenceable(16) %16, ptr noundef nonnull @.str.18)
          to label %17 unwind label %18

17:                                               ; preds = %15
  tail call void @__cxa_throw(ptr nonnull %16, ptr nonnull @_ZTISt13runtime_error, ptr nonnull @_ZNSt13runtime_errorD1Ev) #21
  unreachable

18:                                               ; preds = %15
  %19 = landingpad { ptr, i32 }
          cleanup
  br label %common.resume

_ZN10duckdb_re25Mutex10WriterLockEv.exit:         ; preds = %_ZN10duckdb_re25Mutex12ReaderUnlockEv.exit
  store i8 1, ptr %2, align 8, !tbaa !156
  br label %20

20:                                               ; preds = %_ZN10duckdb_re25Mutex10WriterLockEv.exit, %1
  ret void
}